ARM GAS  /var/folders/_f/88qcw_5n2jl40jjphvxyt7wh0000gn/T//ccACCb3s.s 			page 1


   1              		.cpu cortex-m3
   2              		.arch armv7-m
   3              		.fpu softvfp
   4              		.eabi_attribute 20, 1
   5              		.eabi_attribute 21, 1
   6              		.eabi_attribute 23, 3
   7              		.eabi_attribute 24, 1
   8              		.eabi_attribute 25, 1
   9              		.eabi_attribute 26, 1
  10              		.eabi_attribute 30, 1
  11              		.eabi_attribute 34, 1
  12              		.eabi_attribute 18, 4
  13              		.file	"console.c"
  14              		.text
  15              	.Ltext0:
  16              		.cfi_sections	.debug_frame
  17              		.section	.rodata.buf_decode.str1.4,"aMS",%progbits,1
  18              		.align	2
  19              	.LC0:
  20 0000 616F3000 		.ascii	"ao0\000"
  21              		.align	2
  22              	.LC1:
  23 0004 616F3100 		.ascii	"ao1\000"
  24              		.align	2
  25              	.LC2:
  26 0008 616F3200 		.ascii	"ao2\000"
  27              		.global	__aeabi_dcmpgt
  28              		.global	__aeabi_dcmplt
  29              		.section	.text.buf_decode,"ax",%progbits
  30              		.align	1
  31              		.global	buf_decode
  32              		.syntax unified
  33              		.thumb
  34              		.thumb_func
  36              	buf_decode:
  37              	.LVL0:
  38              	.LFB65:
  39              		.file 1 "Src/console.c"
   1:Src/console.c **** #include "console.h"
   2:Src/console.c **** 
   3:Src/console.c **** #include "dac.h"
   4:Src/console.c **** #include "stdlib.h"
   5:Src/console.c **** #include "string.h"
   6:Src/console.c **** #include "usart.h"
   7:Src/console.c **** 
   8:Src/console.c **** bool buf_decode(uint8_t *buf, uint16_t size) {
  40              		.loc 1 8 46 view -0
  41              		.cfi_startproc
  42              		@ args = 0, pretend = 0, frame = 24
  43              		@ frame_needed = 0, uses_anonymous_args = 0
  44              		.loc 1 8 46 is_stmt 0 view .LVU1
  45 0000 F0B5     		push	{r4, r5, r6, r7, lr}
  46              	.LCFI0:
  47              		.cfi_def_cfa_offset 20
  48              		.cfi_offset 4, -20
  49              		.cfi_offset 5, -16
  50              		.cfi_offset 6, -12
ARM GAS  /var/folders/_f/88qcw_5n2jl40jjphvxyt7wh0000gn/T//ccACCb3s.s 			page 2


  51              		.cfi_offset 7, -8
  52              		.cfi_offset 14, -4
  53 0002 87B0     		sub	sp, sp, #28
  54              	.LCFI1:
  55              		.cfi_def_cfa_offset 48
  56 0004 0446     		mov	r4, r0
   9:Src/console.c ****     uint8_t ao[4] = {0};
  57              		.loc 1 9 5 is_stmt 1 view .LVU2
  58              		.loc 1 9 13 is_stmt 0 view .LVU3
  59 0006 0023     		movs	r3, #0
  60 0008 0593     		str	r3, [sp, #20]
  10:Src/console.c ****     ao[3] = '\0';
  61              		.loc 1 10 5 is_stmt 1 view .LVU4
  11:Src/console.c ****     uint8_t ch_ao = 5;
  62              		.loc 1 11 5 view .LVU5
  63              	.LVL1:
  12:Src/console.c **** 
  13:Src/console.c ****     uint8_t voltage[20] = {0};
  64              		.loc 1 13 5 view .LVU6
  65              		.loc 1 13 13 is_stmt 0 view .LVU7
  66 000a 0093     		str	r3, [sp]
  67 000c 0193     		str	r3, [sp, #4]
  68 000e 0293     		str	r3, [sp, #8]
  69 0010 0393     		str	r3, [sp, #12]
  70 0012 0493     		str	r3, [sp, #16]
  14:Src/console.c ****     voltage[19] = '\n';
  71              		.loc 1 14 5 is_stmt 1 view .LVU8
  72              		.loc 1 14 17 is_stmt 0 view .LVU9
  73 0014 0A22     		movs	r2, #10
  74 0016 8DF81320 		strb	r2, [sp, #19]
  15:Src/console.c ****     double volt = 0;
  75              		.loc 1 15 5 is_stmt 1 view .LVU10
  76              	.LVL2:
  16:Src/console.c **** 
  17:Src/console.c ****     for (uint8_t x = 0; x < 3; x++) {
  77              		.loc 1 17 5 view .LVU11
  78              	.LBB2:
  79              		.loc 1 17 10 view .LVU12
  80              		.loc 1 17 5 is_stmt 0 view .LVU13
  81 001a 07E0     		b	.L2
  82              	.LVL3:
  83              	.L3:
  18:Src/console.c ****         ao[x] = *(buf + x);
  84              		.loc 1 18 9 is_stmt 1 discriminator 3 view .LVU14
  85              		.loc 1 18 17 is_stmt 0 discriminator 3 view .LVU15
  86 001c E15C     		ldrb	r1, [r4, r3]	@ zero_extendqisi2
  87              		.loc 1 18 15 discriminator 3 view .LVU16
  88 001e 03F11802 		add	r2, r3, #24
  89 0022 6A44     		add	r2, sp, r2
  90 0024 02F8041C 		strb	r1, [r2, #-4]
  17:Src/console.c ****         ao[x] = *(buf + x);
  91              		.loc 1 17 32 is_stmt 1 discriminator 3 view .LVU17
  17:Src/console.c ****         ao[x] = *(buf + x);
  92              		.loc 1 17 33 is_stmt 0 discriminator 3 view .LVU18
  93 0028 0133     		adds	r3, r3, #1
  94              	.LVL4:
  17:Src/console.c ****         ao[x] = *(buf + x);
ARM GAS  /var/folders/_f/88qcw_5n2jl40jjphvxyt7wh0000gn/T//ccACCb3s.s 			page 3


  95              		.loc 1 17 33 discriminator 3 view .LVU19
  96 002a DBB2     		uxtb	r3, r3
  97              	.LVL5:
  98              	.L2:
  17:Src/console.c ****         ao[x] = *(buf + x);
  99              		.loc 1 17 25 is_stmt 1 discriminator 1 view .LVU20
  17:Src/console.c ****         ao[x] = *(buf + x);
 100              		.loc 1 17 5 is_stmt 0 discriminator 1 view .LVU21
 101 002c 022B     		cmp	r3, #2
 102 002e F5D9     		bls	.L3
 103              	.LBE2:
  19:Src/console.c ****     }
  20:Src/console.c ****     if (strcmp(ao, "ao0") == 0) ch_ao = 0;
 104              		.loc 1 20 5 is_stmt 1 view .LVU22
 105              		.loc 1 20 9 is_stmt 0 view .LVU23
 106 0030 2549     		ldr	r1, .L19
 107 0032 05A8     		add	r0, sp, #20
 108              	.LVL6:
 109              		.loc 1 20 9 view .LVU24
 110 0034 FFF7FEFF 		bl	strcmp
 111              	.LVL7:
 112              		.loc 1 20 8 view .LVU25
 113 0038 78B1     		cbz	r0, .L10
  11:Src/console.c **** 
 114              		.loc 1 11 13 view .LVU26
 115 003a 0525     		movs	r5, #5
 116              	.L4:
 117              	.LVL8:
  21:Src/console.c ****     if (strcmp(ao, "ao1") == 0) ch_ao = 1;
 118              		.loc 1 21 5 is_stmt 1 view .LVU27
 119              		.loc 1 21 9 is_stmt 0 view .LVU28
 120 003c 2349     		ldr	r1, .L19+4
 121 003e 05A8     		add	r0, sp, #20
 122 0040 FFF7FEFF 		bl	strcmp
 123              	.LVL9:
 124              		.loc 1 21 8 view .LVU29
 125 0044 00B9     		cbnz	r0, .L5
 126              		.loc 1 21 39 view .LVU30
 127 0046 0125     		movs	r5, #1
 128              	.LVL10:
 129              	.L5:
  22:Src/console.c ****     if (strcmp(ao, "ao2") == 0) ch_ao = 2;
 130              		.loc 1 22 5 is_stmt 1 view .LVU31
 131              		.loc 1 22 9 is_stmt 0 view .LVU32
 132 0048 2149     		ldr	r1, .L19+8
 133 004a 05A8     		add	r0, sp, #20
 134 004c FFF7FEFF 		bl	strcmp
 135              	.LVL11:
 136              		.loc 1 22 8 view .LVU33
 137 0050 28B1     		cbz	r0, .L12
  23:Src/console.c ****     if (ch_ao == 5) return 1;
 138              		.loc 1 23 5 is_stmt 1 view .LVU34
 139              		.loc 1 23 8 is_stmt 0 view .LVU35
 140 0052 052D     		cmp	r5, #5
 141 0054 04D1     		bne	.L6
 142              		.loc 1 23 28 view .LVU36
 143 0056 0120     		movs	r0, #1
ARM GAS  /var/folders/_f/88qcw_5n2jl40jjphvxyt7wh0000gn/T//ccACCb3s.s 			page 4


 144 0058 30E0     		b	.L7
 145              	.LVL12:
 146              	.L10:
  20:Src/console.c ****     if (strcmp(ao, "ao1") == 0) ch_ao = 1;
 147              		.loc 1 20 39 view .LVU37
 148 005a 0025     		movs	r5, #0
 149 005c EEE7     		b	.L4
 150              	.LVL13:
 151              	.L12:
  22:Src/console.c ****     if (strcmp(ao, "ao2") == 0) ch_ao = 2;
 152              		.loc 1 22 39 view .LVU38
 153 005e 0225     		movs	r5, #2
 154              	.LVL14:
 155              	.L6:
  24:Src/console.c **** 
  25:Src/console.c ****     if (*(buf + 3) != ' ') return 1;
 156              		.loc 1 25 5 is_stmt 1 view .LVU39
 157              		.loc 1 25 9 is_stmt 0 view .LVU40
 158 0060 E378     		ldrb	r3, [r4, #3]	@ zero_extendqisi2
 159              		.loc 1 25 8 view .LVU41
 160 0062 202B     		cmp	r3, #32
 161 0064 29D1     		bne	.L14
  26:Src/console.c **** 
  27:Src/console.c ****     uint8_t x = 0;
 162              		.loc 1 27 13 view .LVU42
 163 0066 0023     		movs	r3, #0
 164 0068 06E0     		b	.L9
 165              	.LVL15:
 166              	.L18:
  28:Src/console.c ****     while (1) {
  29:Src/console.c ****         if (*(buf + 4 + x) != '\n')
  30:Src/console.c ****             voltage[x] = *(buf + 4 + x);
 167              		.loc 1 30 13 is_stmt 1 view .LVU43
 168              		.loc 1 30 24 is_stmt 0 view .LVU44
 169 006a 03F11801 		add	r1, r3, #24
 170 006e 6944     		add	r1, sp, r1
 171 0070 01F8182C 		strb	r2, [r1, #-24]
  31:Src/console.c ****         else {
  32:Src/console.c ****             voltage[x] = '\0';
  33:Src/console.c ****             break;
  34:Src/console.c ****         }
  35:Src/console.c ****         x++;
 172              		.loc 1 35 9 is_stmt 1 view .LVU45
 173              		.loc 1 35 10 is_stmt 0 view .LVU46
 174 0074 0133     		adds	r3, r3, #1
 175              	.LVL16:
 176              		.loc 1 35 10 view .LVU47
 177 0076 DBB2     		uxtb	r3, r3
 178              	.LVL17:
  28:Src/console.c ****     while (1) {
 179              		.loc 1 28 11 is_stmt 1 view .LVU48
 180              	.L9:
  28:Src/console.c ****     while (1) {
 181              		.loc 1 28 5 view .LVU49
  29:Src/console.c ****             voltage[x] = *(buf + 4 + x);
 182              		.loc 1 29 9 view .LVU50
  29:Src/console.c ****             voltage[x] = *(buf + 4 + x);
ARM GAS  /var/folders/_f/88qcw_5n2jl40jjphvxyt7wh0000gn/T//ccACCb3s.s 			page 5


 183              		.loc 1 29 23 is_stmt 0 view .LVU51
 184 0078 1A1D     		adds	r2, r3, #4
  29:Src/console.c ****             voltage[x] = *(buf + 4 + x);
 185              		.loc 1 29 13 view .LVU52
 186 007a A25C     		ldrb	r2, [r4, r2]	@ zero_extendqisi2
  29:Src/console.c ****             voltage[x] = *(buf + 4 + x);
 187              		.loc 1 29 12 view .LVU53
 188 007c 0A2A     		cmp	r2, #10
 189 007e F4D1     		bne	.L18
  32:Src/console.c ****             break;
 190              		.loc 1 32 13 is_stmt 1 view .LVU54
  32:Src/console.c ****             break;
 191              		.loc 1 32 24 is_stmt 0 view .LVU55
 192 0080 1833     		adds	r3, r3, #24
 193              	.LVL18:
  32:Src/console.c ****             break;
 194              		.loc 1 32 24 view .LVU56
 195 0082 6B44     		add	r3, sp, r3
 196 0084 0022     		movs	r2, #0
 197 0086 03F8182C 		strb	r2, [r3, #-24]
  33:Src/console.c ****         }
 198              		.loc 1 33 13 is_stmt 1 view .LVU57
  36:Src/console.c ****     }
  37:Src/console.c **** 
  38:Src/console.c ****     volt = atof(voltage);
 199              		.loc 1 38 5 view .LVU58
 200              		.loc 1 38 12 is_stmt 0 view .LVU59
 201 008a 6846     		mov	r0, sp
 202 008c FFF7FEFF 		bl	atof
 203              	.LVL19:
 204 0090 0646     		mov	r6, r0
 205 0092 0F46     		mov	r7, r1
 206              	.LVL20:
  39:Src/console.c ****     if ((volt > 10) || (volt < 0)) return 1;
 207              		.loc 1 39 5 is_stmt 1 view .LVU60
 208              		.loc 1 39 8 is_stmt 0 view .LVU61
 209 0094 0022     		movs	r2, #0
 210 0096 0F4B     		ldr	r3, .L19+12
 211 0098 FFF7FEFF 		bl	__aeabi_dcmpgt
 212              	.LVL21:
 213 009c 80B9     		cbnz	r0, .L15
 214              		.loc 1 39 21 discriminator 2 view .LVU62
 215 009e 0022     		movs	r2, #0
 216 00a0 0023     		movs	r3, #0
 217 00a2 3046     		mov	r0, r6
 218 00a4 3946     		mov	r1, r7
 219 00a6 FFF7FEFF 		bl	__aeabi_dcmplt
 220              	.LVL22:
 221 00aa 58B9     		cbnz	r0, .L16
  40:Src/console.c ****     
  41:Src/console.c ****     dac_set_voltage(ch_ao, volt);
 222              		.loc 1 41 5 is_stmt 1 view .LVU63
 223 00ac 3246     		mov	r2, r6
 224 00ae 3B46     		mov	r3, r7
 225 00b0 2846     		mov	r0, r5
 226 00b2 FFF7FEFF 		bl	dac_set_voltage
 227              	.LVL23:
ARM GAS  /var/folders/_f/88qcw_5n2jl40jjphvxyt7wh0000gn/T//ccACCb3s.s 			page 6


  42:Src/console.c **** 
  43:Src/console.c ****     return 0;
 228              		.loc 1 43 5 view .LVU64
 229              		.loc 1 43 12 is_stmt 0 view .LVU65
 230 00b6 0020     		movs	r0, #0
 231 00b8 00E0     		b	.L7
 232              	.LVL24:
 233              	.L14:
  25:Src/console.c **** 
 234              		.loc 1 25 35 view .LVU66
 235 00ba 0120     		movs	r0, #1
 236              	.LVL25:
 237              	.L7:
  44:Src/console.c **** }...
 238              		.loc 1 44 1 view .LVU67
 239 00bc 07B0     		add	sp, sp, #28
 240              	.LCFI2:
 241              		.cfi_remember_state
 242              		.cfi_def_cfa_offset 20
 243              		@ sp needed
 244 00be F0BD     		pop	{r4, r5, r6, r7, pc}
 245              	.LVL26:
 246              	.L15:
 247              	.LCFI3:
 248              		.cfi_restore_state
  39:Src/console.c ****     if ((volt > 10) || (volt < 0)) return 1;
 249              		.loc 1 39 43 view .LVU68
 250 00c0 0120     		movs	r0, #1
 251 00c2 FBE7     		b	.L7
 252              	.L16:
 253 00c4 0120     		movs	r0, #1
 254 00c6 F9E7     		b	.L7
 255              	.L20:
 256              		.align	2
 257              	.L19:
 258 00c8 00000000 		.word	.LC0
 259 00cc 04000000 		.word	.LC1
 260 00d0 08000000 		.word	.LC2
 261 00d4 00002440 		.word	1076101120
 262              		.cfi_endproc
 263              	.LFE65:
 265              		.text
 266              	.Letext0:
 267              		.file 2 "/Applications/ARM/arm-none-eabi/include/machine/_default_types.h"
 268              		.file 3 "/Applications/ARM/arm-none-eabi/include/sys/_stdint.h"
 269              		.file 4 "/Applications/ARM/arm-none-eabi/include/string.h"
 270              		.file 5 "/Applications/ARM/arm-none-eabi/include/stdlib.h"
 271              		.file 6 "Inc/dac.h"
ARM GAS  /var/folders/_f/88qcw_5n2jl40jjphvxyt7wh0000gn/T//ccACCb3s.s 			page 7


DEFINED SYMBOLS
                            *ABS*:0000000000000000 console.c
/var/folders/_f/88qcw_5n2jl40jjphvxyt7wh0000gn/T//ccACCb3s.s:18     .rodata.buf_decode.str1.4:0000000000000000 $d
/var/folders/_f/88qcw_5n2jl40jjphvxyt7wh0000gn/T//ccACCb3s.s:30     .text.buf_decode:0000000000000000 $t
/var/folders/_f/88qcw_5n2jl40jjphvxyt7wh0000gn/T//ccACCb3s.s:36     .text.buf_decode:0000000000000000 buf_decode
/var/folders/_f/88qcw_5n2jl40jjphvxyt7wh0000gn/T//ccACCb3s.s:258    .text.buf_decode:00000000000000c8 $d

UNDEFINED SYMBOLS
__aeabi_dcmpgt
__aeabi_dcmplt
strcmp
atof
dac_set_voltage
