ARM GAS  /var/folders/_f/88qcw_5n2jl40jjphvxyt7wh0000gn/T//ccpopGmt.s 			page 1


   1              		.cpu cortex-m3
   2              		.arch armv7-m
   3              		.fpu softvfp
   4              		.eabi_attribute 20, 1
   5              		.eabi_attribute 21, 1
   6              		.eabi_attribute 23, 3
   7              		.eabi_attribute 24, 1
   8              		.eabi_attribute 25, 1
   9              		.eabi_attribute 26, 1
  10              		.eabi_attribute 30, 1
  11              		.eabi_attribute 34, 1
  12              		.eabi_attribute 18, 4
  13              		.file	"console.c"
  14              		.text
  15              	.Ltext0:
  16              		.cfi_sections	.debug_frame
  17              		.section	.rodata.buf_decode.str1.4,"aMS",%progbits,1
  18              		.align	2
  19              	.LC1:
  20 0000 616F3000 		.ascii	"ao0\000"
  21              		.align	2
  22              	.LC2:
  23 0004 616F3100 		.ascii	"ao1\000"
  24              		.align	2
  25              	.LC3:
  26 0008 616F3200 		.ascii	"ao2\000"
  27              		.global	__aeabi_dcmpgt
  28              		.global	__aeabi_dcmplt
  29              		.section	.text.buf_decode,"ax",%progbits
  30              		.align	1
  31              		.global	buf_decode
  32              		.syntax unified
  33              		.thumb
  34              		.thumb_func
  36              	buf_decode:
  37              	.LVL0:
  38              	.LFB65:
  39              		.file 1 "Src/console.c"
   1:Src/console.c **** #include "console.h"
   2:Src/console.c **** 
   3:Src/console.c **** #include "dac.h"
   4:Src/console.c **** #include "stdlib.h"
   5:Src/console.c **** #include "string.h"
   6:Src/console.c **** #include "usart.h"
   7:Src/console.c **** 
   8:Src/console.c **** bool buf_decode(uint8_t *buf, uint16_t size) {
  40              		.loc 1 8 46 view -0
  41              		.cfi_startproc
  42              		@ args = 0, pretend = 0, frame = 24
  43              		@ frame_needed = 0, uses_anonymous_args = 0
  44              		.loc 1 8 46 is_stmt 0 view .LVU1
  45 0000 F0B5     		push	{r4, r5, r6, r7, lr}
  46              	.LCFI0:
  47              		.cfi_def_cfa_offset 20
  48              		.cfi_offset 4, -20
  49              		.cfi_offset 5, -16
  50              		.cfi_offset 6, -12
ARM GAS  /var/folders/_f/88qcw_5n2jl40jjphvxyt7wh0000gn/T//ccpopGmt.s 			page 2


  51              		.cfi_offset 7, -8
  52              		.cfi_offset 14, -4
  53 0002 87B0     		sub	sp, sp, #28
  54              	.LCFI1:
  55              		.cfi_def_cfa_offset 48
  56 0004 0446     		mov	r4, r0
   9:Src/console.c ****     uint8_t ao[3] = {0};
  57              		.loc 1 9 5 is_stmt 1 view .LVU2
  58              		.loc 1 9 13 is_stmt 0 view .LVU3
  59 0006 334B     		ldr	r3, .L19
  60 0008 1B88     		ldrh	r3, [r3]
  61 000a ADF81430 		strh	r3, [sp, #20]	@ movhi
  62 000e 0023     		movs	r3, #0
  63 0010 8DF81630 		strb	r3, [sp, #22]
  10:Src/console.c ****     uint8_t ch_ao = 5;
  64              		.loc 1 10 5 is_stmt 1 view .LVU4
  65              	.LVL1:
  11:Src/console.c **** 
  12:Src/console.c ****     uint8_t voltage[20] = {0};
  66              		.loc 1 12 5 view .LVU5
  67              		.loc 1 12 13 is_stmt 0 view .LVU6
  68 0014 0093     		str	r3, [sp]
  69 0016 0193     		str	r3, [sp, #4]
  70 0018 0293     		str	r3, [sp, #8]
  71 001a 0393     		str	r3, [sp, #12]
  72 001c 0493     		str	r3, [sp, #16]
  13:Src/console.c ****     voltage[19] = '\n';
  73              		.loc 1 13 5 is_stmt 1 view .LVU7
  74              		.loc 1 13 17 is_stmt 0 view .LVU8
  75 001e 0A22     		movs	r2, #10
  76 0020 8DF81320 		strb	r2, [sp, #19]
  14:Src/console.c ****     double volt = 0;
  77              		.loc 1 14 5 is_stmt 1 view .LVU9
  78              	.LVL2:
  15:Src/console.c **** 
  16:Src/console.c ****     for (uint8_t x = 0; x < 3; x++) {
  79              		.loc 1 16 5 view .LVU10
  80              	.LBB2:
  81              		.loc 1 16 10 view .LVU11
  82              		.loc 1 16 5 is_stmt 0 view .LVU12
  83 0024 07E0     		b	.L2
  84              	.LVL3:
  85              	.L3:
  17:Src/console.c ****         ao[x] = *(buf + x);
  86              		.loc 1 17 9 is_stmt 1 discriminator 3 view .LVU13
  87              		.loc 1 17 17 is_stmt 0 discriminator 3 view .LVU14
  88 0026 E15C     		ldrb	r1, [r4, r3]	@ zero_extendqisi2
  89              		.loc 1 17 15 discriminator 3 view .LVU15
  90 0028 03F11802 		add	r2, r3, #24
  91 002c 6A44     		add	r2, sp, r2
  92 002e 02F8041C 		strb	r1, [r2, #-4]
  16:Src/console.c ****         ao[x] = *(buf + x);
  93              		.loc 1 16 32 is_stmt 1 discriminator 3 view .LVU16
  16:Src/console.c ****         ao[x] = *(buf + x);
  94              		.loc 1 16 33 is_stmt 0 discriminator 3 view .LVU17
  95 0032 0133     		adds	r3, r3, #1
  96              	.LVL4:
ARM GAS  /var/folders/_f/88qcw_5n2jl40jjphvxyt7wh0000gn/T//ccpopGmt.s 			page 3


  16:Src/console.c ****         ao[x] = *(buf + x);
  97              		.loc 1 16 33 discriminator 3 view .LVU18
  98 0034 DBB2     		uxtb	r3, r3
  99              	.LVL5:
 100              	.L2:
  16:Src/console.c ****         ao[x] = *(buf + x);
 101              		.loc 1 16 25 is_stmt 1 discriminator 1 view .LVU19
  16:Src/console.c ****         ao[x] = *(buf + x);
 102              		.loc 1 16 5 is_stmt 0 discriminator 1 view .LVU20
 103 0036 022B     		cmp	r3, #2
 104 0038 F5D9     		bls	.L3
 105              	.LBE2:
  18:Src/console.c ****     }
  19:Src/console.c ****     if (strcmp(ao, "ao0") == 0) ch_ao = 0;
 106              		.loc 1 19 5 is_stmt 1 view .LVU21
 107              		.loc 1 19 9 is_stmt 0 view .LVU22
 108 003a 2749     		ldr	r1, .L19+4
 109 003c 05A8     		add	r0, sp, #20
 110              	.LVL6:
 111              		.loc 1 19 9 view .LVU23
 112 003e FFF7FEFF 		bl	strcmp
 113              	.LVL7:
 114              		.loc 1 19 8 view .LVU24
 115 0042 78B1     		cbz	r0, .L10
  10:Src/console.c **** 
 116              		.loc 1 10 13 view .LVU25
 117 0044 0525     		movs	r5, #5
 118              	.L4:
 119              	.LVL8:
  20:Src/console.c ****     if (strcmp(ao, "ao1") == 0) ch_ao = 1;
 120              		.loc 1 20 5 is_stmt 1 view .LVU26
 121              		.loc 1 20 9 is_stmt 0 view .LVU27
 122 0046 2549     		ldr	r1, .L19+8
 123 0048 05A8     		add	r0, sp, #20
 124 004a FFF7FEFF 		bl	strcmp
 125              	.LVL9:
 126              		.loc 1 20 8 view .LVU28
 127 004e 00B9     		cbnz	r0, .L5
 128              		.loc 1 20 39 view .LVU29
 129 0050 0125     		movs	r5, #1
 130              	.LVL10:
 131              	.L5:
  21:Src/console.c ****     if (strcmp(ao, "ao2") == 0) ch_ao = 2;
 132              		.loc 1 21 5 is_stmt 1 view .LVU30
 133              		.loc 1 21 9 is_stmt 0 view .LVU31
 134 0052 2349     		ldr	r1, .L19+12
 135 0054 05A8     		add	r0, sp, #20
 136 0056 FFF7FEFF 		bl	strcmp
 137              	.LVL11:
 138              		.loc 1 21 8 view .LVU32
 139 005a 28B1     		cbz	r0, .L12
  22:Src/console.c ****     if (ch_ao == 5) return 1;
 140              		.loc 1 22 5 is_stmt 1 view .LVU33
 141              		.loc 1 22 8 is_stmt 0 view .LVU34
 142 005c 052D     		cmp	r5, #5
 143 005e 04D1     		bne	.L6
 144              		.loc 1 22 28 view .LVU35
ARM GAS  /var/folders/_f/88qcw_5n2jl40jjphvxyt7wh0000gn/T//ccpopGmt.s 			page 4


 145 0060 0120     		movs	r0, #1
 146 0062 30E0     		b	.L7
 147              	.LVL12:
 148              	.L10:
  19:Src/console.c ****     if (strcmp(ao, "ao1") == 0) ch_ao = 1;
 149              		.loc 1 19 39 view .LVU36
 150 0064 0025     		movs	r5, #0
 151 0066 EEE7     		b	.L4
 152              	.LVL13:
 153              	.L12:
  21:Src/console.c ****     if (strcmp(ao, "ao2") == 0) ch_ao = 2;
 154              		.loc 1 21 39 view .LVU37
 155 0068 0225     		movs	r5, #2
 156              	.LVL14:
 157              	.L6:
  23:Src/console.c **** 
  24:Src/console.c ****     if (*(buf + 3) != ' ') return 1;
 158              		.loc 1 24 5 is_stmt 1 view .LVU38
 159              		.loc 1 24 9 is_stmt 0 view .LVU39
 160 006a E378     		ldrb	r3, [r4, #3]	@ zero_extendqisi2
 161              		.loc 1 24 8 view .LVU40
 162 006c 202B     		cmp	r3, #32
 163 006e 29D1     		bne	.L14
  25:Src/console.c **** 
  26:Src/console.c ****     uint8_t x = 0;
 164              		.loc 1 26 13 view .LVU41
 165 0070 0023     		movs	r3, #0
 166 0072 06E0     		b	.L9
 167              	.LVL15:
 168              	.L18:
  27:Src/console.c ****     while (1) {
  28:Src/console.c ****         if (*(buf + 4 + x) != '\n')
  29:Src/console.c ****             voltage[x] = *(buf + 4 + x);
 169              		.loc 1 29 13 is_stmt 1 view .LVU42
 170              		.loc 1 29 24 is_stmt 0 view .LVU43
 171 0074 03F11801 		add	r1, r3, #24
 172 0078 6944     		add	r1, sp, r1
 173 007a 01F8182C 		strb	r2, [r1, #-24]
  30:Src/console.c ****         else {
  31:Src/console.c ****             voltage[x] = '\0';
  32:Src/console.c ****             break;
  33:Src/console.c ****         }
  34:Src/console.c ****         x++;
 174              		.loc 1 34 9 is_stmt 1 view .LVU44
 175              		.loc 1 34 10 is_stmt 0 view .LVU45
 176 007e 0133     		adds	r3, r3, #1
 177              	.LVL16:
 178              		.loc 1 34 10 view .LVU46
 179 0080 DBB2     		uxtb	r3, r3
 180              	.LVL17:
  27:Src/console.c ****     while (1) {
 181              		.loc 1 27 11 is_stmt 1 view .LVU47
 182              	.L9:
  27:Src/console.c ****     while (1) {
 183              		.loc 1 27 5 view .LVU48
  28:Src/console.c ****             voltage[x] = *(buf + 4 + x);
 184              		.loc 1 28 9 view .LVU49
ARM GAS  /var/folders/_f/88qcw_5n2jl40jjphvxyt7wh0000gn/T//ccpopGmt.s 			page 5


  28:Src/console.c ****             voltage[x] = *(buf + 4 + x);
 185              		.loc 1 28 23 is_stmt 0 view .LVU50
 186 0082 1A1D     		adds	r2, r3, #4
  28:Src/console.c ****             voltage[x] = *(buf + 4 + x);
 187              		.loc 1 28 13 view .LVU51
 188 0084 A25C     		ldrb	r2, [r4, r2]	@ zero_extendqisi2
  28:Src/console.c ****             voltage[x] = *(buf + 4 + x);
 189              		.loc 1 28 12 view .LVU52
 190 0086 0A2A     		cmp	r2, #10
 191 0088 F4D1     		bne	.L18
  31:Src/console.c ****             break;
 192              		.loc 1 31 13 is_stmt 1 view .LVU53
  31:Src/console.c ****             break;
 193              		.loc 1 31 24 is_stmt 0 view .LVU54
 194 008a 1833     		adds	r3, r3, #24
 195              	.LVL18:
  31:Src/console.c ****             break;
 196              		.loc 1 31 24 view .LVU55
 197 008c 6B44     		add	r3, sp, r3
 198 008e 0022     		movs	r2, #0
 199 0090 03F8182C 		strb	r2, [r3, #-24]
  32:Src/console.c ****         }
 200              		.loc 1 32 13 is_stmt 1 view .LVU56
  35:Src/console.c ****     }
  36:Src/console.c **** 
  37:Src/console.c ****     volt = atof(voltage);
 201              		.loc 1 37 5 view .LVU57
 202              		.loc 1 37 12 is_stmt 0 view .LVU58
 203 0094 6846     		mov	r0, sp
 204 0096 FFF7FEFF 		bl	atof
 205              	.LVL19:
 206 009a 0646     		mov	r6, r0
 207 009c 0F46     		mov	r7, r1
 208              	.LVL20:
  38:Src/console.c ****     if ((volt > 10) || (volt < 0)) return 1;
 209              		.loc 1 38 5 is_stmt 1 view .LVU59
 210              		.loc 1 38 8 is_stmt 0 view .LVU60
 211 009e 0022     		movs	r2, #0
 212 00a0 104B     		ldr	r3, .L19+16
 213 00a2 FFF7FEFF 		bl	__aeabi_dcmpgt
 214              	.LVL21:
 215 00a6 80B9     		cbnz	r0, .L15
 216              		.loc 1 38 21 discriminator 2 view .LVU61
 217 00a8 0022     		movs	r2, #0
 218 00aa 0023     		movs	r3, #0
 219 00ac 3046     		mov	r0, r6
 220 00ae 3946     		mov	r1, r7
 221 00b0 FFF7FEFF 		bl	__aeabi_dcmplt
 222              	.LVL22:
 223 00b4 58B9     		cbnz	r0, .L16
  39:Src/console.c ****     
  40:Src/console.c ****     dac_set_voltage(ch_ao, volt);
 224              		.loc 1 40 5 is_stmt 1 view .LVU62
 225 00b6 3246     		mov	r2, r6
 226 00b8 3B46     		mov	r3, r7
 227 00ba 2846     		mov	r0, r5
 228 00bc FFF7FEFF 		bl	dac_set_voltage
ARM GAS  /var/folders/_f/88qcw_5n2jl40jjphvxyt7wh0000gn/T//ccpopGmt.s 			page 6


 229              	.LVL23:
  41:Src/console.c **** 
  42:Src/console.c ****     return 0;
 230              		.loc 1 42 5 view .LVU63
 231              		.loc 1 42 12 is_stmt 0 view .LVU64
 232 00c0 0020     		movs	r0, #0
 233 00c2 00E0     		b	.L7
 234              	.LVL24:
 235              	.L14:
  24:Src/console.c **** 
 236              		.loc 1 24 35 view .LVU65
 237 00c4 0120     		movs	r0, #1
 238              	.LVL25:
 239              	.L7:
  43:Src/console.c **** }...
 240              		.loc 1 43 1 view .LVU66
 241 00c6 07B0     		add	sp, sp, #28
 242              	.LCFI2:
 243              		.cfi_remember_state
 244              		.cfi_def_cfa_offset 20
 245              		@ sp needed
 246 00c8 F0BD     		pop	{r4, r5, r6, r7, pc}
 247              	.LVL26:
 248              	.L15:
 249              	.LCFI3:
 250              		.cfi_restore_state
  38:Src/console.c ****     if ((volt > 10) || (volt < 0)) return 1;
 251              		.loc 1 38 43 view .LVU67
 252 00ca 0120     		movs	r0, #1
 253 00cc FBE7     		b	.L7
 254              	.L16:
 255 00ce 0120     		movs	r0, #1
 256 00d0 F9E7     		b	.L7
 257              	.L20:
 258 00d2 00BF     		.align	2
 259              	.L19:
 260 00d4 00000000 		.word	.LANCHOR0
 261 00d8 00000000 		.word	.LC1
 262 00dc 04000000 		.word	.LC2
 263 00e0 08000000 		.word	.LC3
 264 00e4 00002440 		.word	1076101120
 265              		.cfi_endproc
 266              	.LFE65:
 268              		.section	.rodata
 269              		.align	2
 270              		.set	.LANCHOR0,. + 0
 271              	.LC0:
 272 0000 0000     		.ascii	"\000\000"
 273 0002 00       		.space	1
 274              		.text
 275              	.Letext0:
 276              		.file 2 "/Applications/ARM/arm-none-eabi/include/machine/_default_types.h"
 277              		.file 3 "/Applications/ARM/arm-none-eabi/include/sys/_stdint.h"
 278              		.file 4 "/Applications/ARM/arm-none-eabi/include/string.h"
 279              		.file 5 "/Applications/ARM/arm-none-eabi/include/stdlib.h"
 280              		.file 6 "Inc/dac.h"
ARM GAS  /var/folders/_f/88qcw_5n2jl40jjphvxyt7wh0000gn/T//ccpopGmt.s 			page 7

